target datalayout = "e-m:e-p270:32:32-p271:32:32-p272:64:64-i64:64-i128:128-f80:128-n8:16:32:64-S128"
target triple = "x86_64-pc-linux-gnu"

%struct.H5S_t = type { %struct.H5S_extent_t, %struct.H5S_select_t }
%struct.H5S_extent_t = type { %struct.H5O_shared_t, i32, i32, i64, i32, ptr, ptr }
%struct.H5O_shared_t = type { i32, ptr, i32, %union.anon }
%union.anon = type { %struct.H5O_mesg_loc_t }
%struct.H5O_mesg_loc_t = type { i32, i64 }
%struct.H5S_select_t = type { ptr, i8, [32 x i64], i64, %union.anon.0 }
%union.anon.0 = type { ptr }
%struct.H5S_hyper_sel_t = type { i32, %struct.H5S_hyper_diminfo_t, i32, i64, ptr }
%struct.H5S_hyper_diminfo_t = type { [32 x %struct.H5S_hyper_dim_t], [32 x %struct.H5S_hyper_dim_t], [32 x i64], [32 x i64] }
%struct.H5S_hyper_dim_t = type { i64, i64, i64, i64 }
%struct.H5S_hyper_span_info_t = type { i32, ptr, ptr, [2 x %struct.H5S_hyper_op_info_t], ptr, ptr, [0 x i64] }
%struct.H5S_hyper_op_info_t = type { i64, %union.anon.1 }
%union.anon.1 = type { ptr }
%struct.H5S_hyper_span_t = type { i64, i64, ptr, ptr }

@H5S_init_g = external global i8, align 1
@H5_libterm_g = external global i8, align 1

; Function Attrs: nounwind uwtable
define internal i32 @H5S__hyper_is_contiguous(ptr noundef %0) #0 {
  %2 = alloca ptr, align 8
  %3 = alloca i8, align 1
  %4 = alloca i8, align 1
  %5 = alloca i32, align 4
  %6 = alloca i32, align 4
  %7 = alloca ptr, align 8
  %8 = alloca ptr, align 8
  %9 = alloca ptr, align 8
  store ptr %0, ptr %2, align 8, !tbaa !3
  call void @llvm.lifetime.start.p0(i64 1, ptr %3) #7
  call void @llvm.lifetime.start.p0(i64 1, ptr %4) #7
  call void @llvm.lifetime.start.p0(i64 4, ptr %5) #7
  call void @llvm.lifetime.start.p0(i64 4, ptr %6) #7
  store i32 0, ptr %6, align 4, !tbaa !10
  %10 = load i8, ptr @H5S_init_g, align 1, !tbaa !8, !range !12, !noundef !13
  %11 = trunc i8 %10 to i1
  br i1 %11, label %16, label %12

12:                                               ; preds = %1
  %13 = load i8, ptr @H5_libterm_g, align 1, !tbaa !8, !range !12, !noundef !13
  %14 = trunc i8 %13 to i1
  %15 = xor i1 %14, true
  br label %16

16:                                               ; preds = %12, %1
  %17 = phi i1 [ true, %1 ], [ %15, %12 ]
  %18 = xor i1 %17, true
  %19 = xor i1 %18, true
  %20 = zext i1 %19 to i32
  %21 = sext i32 %20 to i64
  %22 = call i64 @llvm.expect.i64(i64 %21, i64 1)
  %23 = icmp ne i64 %22, 0
  br i1 %23, label %24, label %257

24:                                               ; preds = %16
  %25 = load ptr, ptr %2, align 8, !tbaa !3
  %26 = getelementptr inbounds nuw %struct.H5S_t, ptr %25, i32 0, i32 1
  %27 = getelementptr inbounds nuw %struct.H5S_select_t, ptr %26, i32 0, i32 4
  %28 = load ptr, ptr %27, align 8, !tbaa !14
  %29 = getelementptr inbounds nuw %struct.H5S_hyper_sel_t, ptr %28, i32 0, i32 0
  %30 = load i32, ptr %29, align 8, !tbaa !18
  %31 = icmp eq i32 %30, 2
  br i1 %31, label %32, label %130

32:                                               ; preds = %24
  call void @llvm.lifetime.start.p0(i64 8, ptr %7) #7
  %33 = load ptr, ptr %2, align 8, !tbaa !3
  %34 = getelementptr inbounds nuw %struct.H5S_t, ptr %33, i32 0, i32 1
  %35 = getelementptr inbounds nuw %struct.H5S_select_t, ptr %34, i32 0, i32 4
  %36 = load ptr, ptr %35, align 8, !tbaa !14
  %37 = getelementptr inbounds nuw %struct.H5S_hyper_sel_t, ptr %36, i32 0, i32 1
  %38 = getelementptr inbounds nuw %struct.H5S_hyper_diminfo_t, ptr %37, i32 0, i32 1
  %39 = getelementptr inbounds [32 x %struct.H5S_hyper_dim_t], ptr %38, i64 0, i64 0
  store ptr %39, ptr %7, align 8, !tbaa !41
  store i8 1, ptr %4, align 1, !tbaa !8
  store i8 0, ptr %3, align 1, !tbaa !8
  store i32 0, ptr %5, align 4, !tbaa !10
  br label %40

40:                                               ; preds = %77, %32
  %41 = load i32, ptr %5, align 4, !tbaa !10
  %42 = load ptr, ptr %2, align 8, !tbaa !3
  %43 = getelementptr inbounds nuw %struct.H5S_t, ptr %42, i32 0, i32 0
  %44 = getelementptr inbounds nuw %struct.H5S_extent_t, ptr %43, i32 0, i32 4
  %45 = load i32, ptr %44, align 8, !tbaa !23
  %46 = icmp ult i32 %41, %45
  br i1 %46, label %47, label %80

47:                                               ; preds = %40
  %48 = load ptr, ptr %7, align 8, !tbaa !41
  %49 = load i32, ptr %5, align 4, !tbaa !10
  %50 = zext i32 %49 to i64
  %51 = getelementptr inbounds nuw %struct.H5S_hyper_dim_t, ptr %48, i64 %50
  %52 = getelementptr inbounds nuw %struct.H5S_hyper_dim_t, ptr %51, i32 0, i32 2
  %53 = load i64, ptr %52, align 8, !tbaa !49
  %54 = icmp ugt i64 %53, 1
  br i1 %54, label %55, label %56

55:                                               ; preds = %47
  store i8 0, ptr %4, align 1, !tbaa !8
  br label %80

56:                                               ; preds = %47
  %57 = load i32, ptr %5, align 4, !tbaa !10
  %58 = icmp ugt i32 %57, 0
  br i1 %58, label %59, label %76

59:                                               ; preds = %56
  %60 = load ptr, ptr %7, align 8, !tbaa !41
  %61 = load i32, ptr %5, align 4, !tbaa !10
  %62 = zext i32 %61 to i64
  %63 = getelementptr inbounds nuw %struct.H5S_hyper_dim_t, ptr %60, i64 %62
  %64 = getelementptr inbounds nuw %struct.H5S_hyper_dim_t, ptr %63, i32 0, i32 3
  %65 = load i64, ptr %64, align 8, !tbaa !50
  %66 = load ptr, ptr %2, align 8, !tbaa !3
  %67 = getelementptr inbounds nuw %struct.H5S_t, ptr %66, i32 0, i32 0
  %68 = getelementptr inbounds nuw %struct.H5S_extent_t, ptr %67, i32 0, i32 5
  %69 = load ptr, ptr %68, align 8, !tbaa !34
  %70 = load i32, ptr %5, align 4, !tbaa !10
  %71 = zext i32 %70 to i64
  %72 = getelementptr inbounds nuw i64, ptr %69, i64 %71
  %73 = load i64, ptr %72, align 8, !tbaa !15
  %74 = icmp ne i64 %65, %73
  br i1 %74, label %75, label %76

75:                                               ; preds = %59
  store i8 0, ptr %4, align 1, !tbaa !8
  br label %80

76:                                               ; preds = %59, %56
  br label %77

77:                                               ; preds = %76
  %78 = load i32, ptr %5, align 4, !tbaa !10
  %79 = add i32 %78, 1
  store i32 %79, ptr %5, align 4, !tbaa !10
  br label %40, !llvm.loop !105

80:                                               ; preds = %75, %55, %40
  %81 = load i8, ptr %4, align 1, !tbaa !8, !range !12, !noundef !13
  %82 = trunc i8 %81 to i1
  br i1 %82, label %122, label %83

83:                                               ; preds = %80
  store i8 1, ptr %3, align 1, !tbaa !8
  store i32 0, ptr %5, align 4, !tbaa !10
  br label %84

84:                                               ; preds = %118, %83
  %85 = load i32, ptr %5, align 4, !tbaa !10
  %86 = load ptr, ptr %2, align 8, !tbaa !3
  %87 = getelementptr inbounds nuw %struct.H5S_t, ptr %86, i32 0, i32 0
  %88 = getelementptr inbounds nuw %struct.H5S_extent_t, ptr %87, i32 0, i32 4
  %89 = load i32, ptr %88, align 8, !tbaa !23
  %90 = icmp ult i32 %85, %89
  br i1 %90, label %91, label %121

91:                                               ; preds = %84
  %92 = load ptr, ptr %7, align 8, !tbaa !41
  %93 = load i32, ptr %5, align 4, !tbaa !10
  %94 = zext i32 %93 to i64
  %95 = getelementptr inbounds nuw %struct.H5S_hyper_dim_t, ptr %92, i64 %94
  %96 = getelementptr inbounds nuw %struct.H5S_hyper_dim_t, ptr %95, i32 0, i32 2
  %97 = load i64, ptr %96, align 8, !tbaa !49
  %98 = icmp ugt i64 %97, 1
  br i1 %98, label %99, label %100

99:                                               ; preds = %91
  store i8 0, ptr %3, align 1, !tbaa !8
  br label %121

100:                                              ; preds = %91
  %101 = load i32, ptr %5, align 4, !tbaa !10
  %102 = load ptr, ptr %2, align 8, !tbaa !3
  %103 = getelementptr inbounds nuw %struct.H5S_t, ptr %102, i32 0, i32 0
  %104 = getelementptr inbounds nuw %struct.H5S_extent_t, ptr %103, i32 0, i32 4
  %105 = load i32, ptr %104, align 8, !tbaa !23
  %106 = sub i32 %105, 1
  %107 = icmp ult i32 %101, %106
  br i1 %107, label %108, label %117

108:                                              ; preds = %100
  %109 = load ptr, ptr %7, align 8, !tbaa !41
  %110 = load i32, ptr %5, align 4, !tbaa !10
  %111 = zext i32 %110 to i64
  %112 = getelementptr inbounds nuw %struct.H5S_hyper_dim_t, ptr %109, i64 %111
  %113 = getelementptr inbounds nuw %struct.H5S_hyper_dim_t, ptr %112, i32 0, i32 3
  %114 = load i64, ptr %113, align 8, !tbaa !50
  %115 = icmp ne i64 %114, 1
  br i1 %115, label %116, label %117

116:                                              ; preds = %108
  store i8 0, ptr %3, align 1, !tbaa !8
  br label %121

117:                                              ; preds = %108, %100
  br label %118

118:                                              ; preds = %117
  %119 = load i32, ptr %5, align 4, !tbaa !10
  %120 = add i32 %119, 1
  store i32 %120, ptr %5, align 4, !tbaa !10
  br label %84, !llvm.loop !106

121:                                              ; preds = %116, %99, %84
  br label %122

122:                                              ; preds = %121, %80
  %123 = load i8, ptr %4, align 1, !tbaa !8, !range !12, !noundef !13
  %124 = trunc i8 %123 to i1
  br i1 %124, label %128, label %125

125:                                              ; preds = %122
  %126 = load i8, ptr %3, align 1, !tbaa !8, !range !12, !noundef !13
  %127 = trunc i8 %126 to i1
  br i1 %127, label %128, label %129

128:                                              ; preds = %125, %122
  store i32 1, ptr %6, align 4, !tbaa !10
  br label %129

129:                                              ; preds = %128, %125
  call void @llvm.lifetime.end.p0(i64 8, ptr %7) #7
  br label %256

130:                                              ; preds = %24
  call void @llvm.lifetime.start.p0(i64 8, ptr %8) #7
  call void @llvm.lifetime.start.p0(i64 8, ptr %9) #7
  store i8 1, ptr %4, align 1, !tbaa !8
  store i8 0, ptr %3, align 1, !tbaa !8
  %131 = load ptr, ptr %2, align 8, !tbaa !3
  %132 = getelementptr inbounds nuw %struct.H5S_t, ptr %131, i32 0, i32 1
  %133 = getelementptr inbounds nuw %struct.H5S_select_t, ptr %132, i32 0, i32 4
  %134 = load ptr, ptr %133, align 8, !tbaa !14
  %135 = getelementptr inbounds nuw %struct.H5S_hyper_sel_t, ptr %134, i32 0, i32 4
  %136 = load ptr, ptr %135, align 8, !tbaa !22
  store ptr %136, ptr %8, align 8, !tbaa !107
  %137 = load ptr, ptr %8, align 8, !tbaa !107
  %138 = getelementptr inbounds nuw %struct.H5S_hyper_span_info_t, ptr %137, i32 0, i32 4
  %139 = load ptr, ptr %138, align 8, !tbaa !99
  store ptr %139, ptr %9, align 8, !tbaa !99
  %140 = load ptr, ptr %9, align 8, !tbaa !99
  %141 = getelementptr inbounds nuw %struct.H5S_hyper_span_t, ptr %140, i32 0, i32 3
  %142 = load ptr, ptr %141, align 8, !tbaa !108
  %143 = icmp ne ptr %142, null
  br i1 %143, label %144, label %145

144:                                              ; preds = %130
  store i8 0, ptr %4, align 1, !tbaa !8
  br label %195

145:                                              ; preds = %130
  %146 = load ptr, ptr %9, align 8, !tbaa !99
  %147 = getelementptr inbounds nuw %struct.H5S_hyper_span_t, ptr %146, i32 0, i32 2
  %148 = load ptr, ptr %147, align 8, !tbaa !103
  %149 = icmp ne ptr %148, null
  br i1 %149, label %150, label %194

150:                                              ; preds = %145
  store i32 1, ptr %5, align 4, !tbaa !10
  %151 = load ptr, ptr %9, align 8, !tbaa !99
  %152 = getelementptr inbounds nuw %struct.H5S_hyper_span_t, ptr %151, i32 0, i32 2
  %153 = load ptr, ptr %152, align 8, !tbaa !103
  store ptr %153, ptr %8, align 8, !tbaa !107
  br label %154

154:                                              ; preds = %192, %150
  %155 = load ptr, ptr %8, align 8, !tbaa !107
  %156 = icmp ne ptr %155, null
  br i1 %156, label %157, label %193

157:                                              ; preds = %154
  %158 = load ptr, ptr %8, align 8, !tbaa !107
  %159 = getelementptr inbounds nuw %struct.H5S_hyper_span_info_t, ptr %158, i32 0, i32 4
  %160 = load ptr, ptr %159, align 8, !tbaa !99
  store ptr %160, ptr %9, align 8, !tbaa !99
  %161 = load ptr, ptr %9, align 8, !tbaa !99
  %162 = getelementptr inbounds nuw %struct.H5S_hyper_span_t, ptr %161, i32 0, i32 3
  %163 = load ptr, ptr %162, align 8, !tbaa !108
  %164 = icmp ne ptr %163, null
  br i1 %164, label %165, label %166

165:                                              ; preds = %157
  store i8 0, ptr %4, align 1, !tbaa !8
  br label %193

166:                                              ; preds = %157
  %167 = load ptr, ptr %9, align 8, !tbaa !99
  %168 = getelementptr inbounds nuw %struct.H5S_hyper_span_t, ptr %167, i32 0, i32 1
  %169 = load i64, ptr %168, align 8, !tbaa !109
  %170 = load ptr, ptr %9, align 8, !tbaa !99
  %171 = getelementptr inbounds nuw %struct.H5S_hyper_span_t, ptr %170, i32 0, i32 0
  %172 = load i64, ptr %171, align 8, !tbaa !101
  %173 = sub i64 %169, %172
  %174 = add i64 %173, 1
  %175 = load ptr, ptr %2, align 8, !tbaa !3
  %176 = getelementptr inbounds nuw %struct.H5S_t, ptr %175, i32 0, i32 0
  %177 = getelementptr inbounds nuw %struct.H5S_extent_t, ptr %176, i32 0, i32 5
  %178 = load ptr, ptr %177, align 8, !tbaa !34
  %179 = load i32, ptr %5, align 4, !tbaa !10
  %180 = zext i32 %179 to i64
  %181 = getelementptr inbounds nuw i64, ptr %178, i64 %180
  %182 = load i64, ptr %181, align 8, !tbaa !15
  %183 = icmp ne i64 %174, %182
  br i1 %183, label %184, label %185

184:                                              ; preds = %166
  store i8 0, ptr %4, align 1, !tbaa !8
  br label %193

185:                                              ; preds = %166
  %186 = load ptr, ptr %9, align 8, !tbaa !99
  %187 = getelementptr inbounds nuw %struct.H5S_hyper_span_t, ptr %186, i32 0, i32 2
  %188 = load ptr, ptr %187, align 8, !tbaa !103
  store ptr %188, ptr %8, align 8, !tbaa !107
  %189 = load i32, ptr %5, align 4, !tbaa !10
  %190 = add i32 %189, 1
  store i32 %190, ptr %5, align 4, !tbaa !10
  br label %191

191:                                              ; preds = %185
  br label %192

192:                                              ; preds = %191
  br label %154, !llvm.loop !110

193:                                              ; preds = %184, %165, %154
  br label %194

194:                                              ; preds = %193, %145
  br label %195

195:                                              ; preds = %194, %144
  %196 = load i8, ptr %4, align 1, !tbaa !8, !range !12, !noundef !13
  %197 = trunc i8 %196 to i1
  br i1 %197, label %248, label %198

198:                                              ; preds = %195
  store i8 1, ptr %3, align 1, !tbaa !8
  %199 = load ptr, ptr %2, align 8, !tbaa !3
  %200 = getelementptr inbounds nuw %struct.H5S_t, ptr %199, i32 0, i32 1
  %201 = getelementptr inbounds nuw %struct.H5S_select_t, ptr %200, i32 0, i32 4
  %202 = load ptr, ptr %201, align 8, !tbaa !14
  %203 = getelementptr inbounds nuw %struct.H5S_hyper_sel_t, ptr %202, i32 0, i32 4
  %204 = load ptr, ptr %203, align 8, !tbaa !22
  store ptr %204, ptr %8, align 8, !tbaa !107
  %205 = load ptr, ptr %8, align 8, !tbaa !107
  %206 = getelementptr inbounds nuw %struct.H5S_hyper_span_info_t, ptr %205, i32 0, i32 4
  %207 = load ptr, ptr %206, align 8, !tbaa !99
  store ptr %207, ptr %9, align 8, !tbaa !99
  store i32 0, ptr %5, align 4, !tbaa !10
  br label %208

208:                                              ; preds = %246, %198
  %209 = load ptr, ptr %8, align 8, !tbaa !107
  %210 = icmp ne ptr %209, null
  br i1 %210, label %211, label %247

211:                                              ; preds = %208
  %212 = load ptr, ptr %8, align 8, !tbaa !107
  %213 = getelementptr inbounds nuw %struct.H5S_hyper_span_info_t, ptr %212, i32 0, i32 4
  %214 = load ptr, ptr %213, align 8, !tbaa !99
  store ptr %214, ptr %9, align 8, !tbaa !99
  %215 = load ptr, ptr %9, align 8, !tbaa !99
  %216 = getelementptr inbounds nuw %struct.H5S_hyper_span_t, ptr %215, i32 0, i32 3
  %217 = load ptr, ptr %216, align 8, !tbaa !108
  %218 = icmp ne ptr %217, null
  br i1 %218, label %219, label %220

219:                                              ; preds = %211
  store i8 0, ptr %3, align 1, !tbaa !8
  br label %247

220:                                              ; preds = %211
  %221 = load i32, ptr %5, align 4, !tbaa !10
  %222 = load ptr, ptr %2, align 8, !tbaa !3
  %223 = getelementptr inbounds nuw %struct.H5S_t, ptr %222, i32 0, i32 0
  %224 = getelementptr inbounds nuw %struct.H5S_extent_t, ptr %223, i32 0, i32 4
  %225 = load i32, ptr %224, align 8, !tbaa !23
  %226 = sub i32 %225, 1
  %227 = icmp ult i32 %221, %226
  br i1 %227, label %228, label %239

228:                                              ; preds = %220
  %229 = load ptr, ptr %9, align 8, !tbaa !99
  %230 = getelementptr inbounds nuw %struct.H5S_hyper_span_t, ptr %229, i32 0, i32 1
  %231 = load i64, ptr %230, align 8, !tbaa !109
  %232 = load ptr, ptr %9, align 8, !tbaa !99
  %233 = getelementptr inbounds nuw %struct.H5S_hyper_span_t, ptr %232, i32 0, i32 0
  %234 = load i64, ptr %233, align 8, !tbaa !101
  %235 = sub i64 %231, %234
  %236 = add i64 %235, 1
  %237 = icmp ne i64 %236, 1
  br i1 %237, label %238, label %239

238:                                              ; preds = %228
  store i8 0, ptr %3, align 1, !tbaa !8
  br label %247

239:                                              ; preds = %228, %220
  %240 = load ptr, ptr %9, align 8, !tbaa !99
  %241 = getelementptr inbounds nuw %struct.H5S_hyper_span_t, ptr %240, i32 0, i32 2
  %242 = load ptr, ptr %241, align 8, !tbaa !103
  store ptr %242, ptr %8, align 8, !tbaa !107
  %243 = load i32, ptr %5, align 4, !tbaa !10
  %244 = add i32 %243, 1
  store i32 %244, ptr %5, align 4, !tbaa !10
  br label %245

245:                                              ; preds = %239
  br label %246

246:                                              ; preds = %245
  br label %208, !llvm.loop !111

247:                                              ; preds = %238, %219, %208
  br label %248

248:                                              ; preds = %247, %195
  %249 = load i8, ptr %4, align 1, !tbaa !8, !range !12, !noundef !13
  %250 = trunc i8 %249 to i1
  br i1 %250, label %254, label %251

251:                                              ; preds = %248
  %252 = load i8, ptr %3, align 1, !tbaa !8, !range !12, !noundef !13
  %253 = trunc i8 %252 to i1
  br i1 %253, label %254, label %255

254:                                              ; preds = %251, %248
  store i32 1, ptr %6, align 4, !tbaa !10
  br label %255

255:                                              ; preds = %254, %251
  call void @llvm.lifetime.end.p0(i64 8, ptr %9) #7
  call void @llvm.lifetime.end.p0(i64 8, ptr %8) #7
  br label %256

256:                                              ; preds = %255, %129
  br label %257

257:                                              ; preds = %256, %16
  %258 = load i32, ptr %6, align 4, !tbaa !10
  call void @llvm.lifetime.end.p0(i64 4, ptr %6) #7
  call void @llvm.lifetime.end.p0(i64 4, ptr %5) #7
  call void @llvm.lifetime.end.p0(i64 1, ptr %4) #7
  call void @llvm.lifetime.end.p0(i64 1, ptr %3) #7
  ret i32 %258
}