; Function Attrs: nofree norecurse nosync nounwind memory(read, inaccessiblemem: none) uwtable
define internal range(i32 0, 2) i32 @H5S__hyper_is_contiguous(ptr noundef readonly captures(none) %0) #1 {
  %2 = load i8, ptr @H5S_init_g, align 1, !tbaa !3, !range !7, !noundef !8
  %3 = trunc nuw i8 %2 to i1
  %4 = load i8, ptr @H5_libterm_g, align 1, !range !7
  %5 = trunc nuw i8 %4 to i1
  %6 = xor i1 %5, true
  %7 = select i1 %3, i1 true, i1 %6
  br i1 %7, label %8, label %.loopexit, !prof !9

8:                                                ; preds = %1
  %9 = getelementptr inbounds nuw i8, ptr %0, i64 360
  %10 = load ptr, ptr %9, align 8, !tbaa !10
  %11 = load i32, ptr %10, align 8, !tbaa !13
  %12 = icmp eq i32 %11, 2
  br i1 %12, label %13, label %47

13:                                               ; preds = %8
  %14 = getelementptr inbounds nuw i8, ptr %10, i64 1032
  %15 = getelementptr inbounds nuw i8, ptr %0, i64 56
  %16 = load i32, ptr %15, align 8, !tbaa !21
  %.not7294 = icmp eq i32 %16, 0
  br i1 %.not7294, label %.loopexit, label %.lr.ph97

.lr.ph97:                                         ; preds = %13
  %17 = getelementptr inbounds nuw i8, ptr %0, i64 64
  br label %18

18:                                               ; preds = %.lr.ph97, %31
  %.05695 = phi i32 [ 0, %.lr.ph97 ], [ %32, %31 ]
  %19 = zext i32 %.05695 to i64
  %20 = getelementptr inbounds nuw %struct.H5S_hyper_dim_t, ptr %14, i64 %19
  %21 = getelementptr inbounds nuw i8, ptr %20, i64 16
  %22 = load i64, ptr %21, align 8, !tbaa !35
  %23 = icmp ugt i64 %22, 1
  br i1 %23, label %33, label %24

24:                                               ; preds = %18
  %.not70 = icmp eq i32 %.05695, 0
  br i1 %.not70, label %31, label %25

25:                                               ; preds = %24
  %26 = getelementptr inbounds nuw i8, ptr %20, i64 24
  %27 = load i64, ptr %26, align 8, !tbaa !46
  %28 = load ptr, ptr %17, align 8, !tbaa !34
  %29 = getelementptr inbounds nuw i64, ptr %28, i64 %19
  %30 = load i64, ptr %29, align 8, !tbaa !11
  %.not71 = icmp eq i64 %27, %30
  br i1 %.not71, label %31, label %33

31:                                               ; preds = %24, %25
  %32 = add nuw i32 %.05695, 1
  %exitcond.not = icmp eq i32 %32, %16
  br i1 %exitcond.not, label %.loopexit, label %18, !llvm.loop !94

33:                                               ; preds = %25, %18
  %34 = add i32 %16, -1
  %35 = zext i32 %34 to i64
  %umax = tail call i32 @llvm.umax.i32(i32 %16, i32 1)
  %wide.trip.count = zext i32 %umax to i64
  br label %36

36:                                               ; preds = %33, %46
  %indvars.iv = phi i64 [ 0, %33 ], [ %indvars.iv.next, %46 ]
  %37 = getelementptr inbounds nuw %struct.H5S_hyper_dim_t, ptr %14, i64 %indvars.iv
  %38 = getelementptr inbounds nuw i8, ptr %37, i64 16
  %39 = load i64, ptr %38, align 8, !tbaa !35
  %40 = icmp ugt i64 %39, 1
  br i1 %40, label %.loopexit, label %41

41:                                               ; preds = %36
  %42 = icmp samesign ult i64 %indvars.iv, %35
  br i1 %42, label %43, label %46

43:                                               ; preds = %41
  %44 = getelementptr inbounds nuw i8, ptr %37, i64 24
  %45 = load i64, ptr %44, align 8, !tbaa !46
  %.not73 = icmp eq i64 %45, 1
  br i1 %.not73, label %46, label %.loopexit

46:                                               ; preds = %41, %43
  %indvars.iv.next = add nuw nsw i64 %indvars.iv, 1
  %exitcond103.not = icmp eq i64 %indvars.iv.next, %wide.trip.count
  br i1 %exitcond103.not, label %.loopexit, label %36, !llvm.loop !95

47:                                               ; preds = %8
  %48 = getelementptr inbounds nuw i8, ptr %10, i64 2584
  %49 = load ptr, ptr %48, align 8, !tbaa !19
  %50 = getelementptr inbounds nuw i8, ptr %49, i64 56
  %51 = load ptr, ptr %50, align 8, !tbaa !88
  %52 = getelementptr inbounds nuw i8, ptr %51, i64 24
  %53 = load ptr, ptr %52, align 8, !tbaa !96
  %.not = icmp eq ptr %53, null
  br i1 %.not, label %54, label %.lr.ph

54:                                               ; preds = %47
  %55 = getelementptr inbounds nuw i8, ptr %51, i64 16
  %56 = load ptr, ptr %55, align 8, !tbaa !92
  %.not63 = icmp eq ptr %56, null
  br i1 %.not63, label %.loopexit, label %.preheader

.preheader:                                       ; preds = %54
  %57 = getelementptr inbounds nuw i8, ptr %0, i64 64
  br label %58

58:                                               ; preds = %.preheader, %73
  %.085 = phi ptr [ %56, %.preheader ], [ %75, %73 ]
  %.25884 = phi i32 [ 1, %.preheader ], [ %76, %73 ]
  %59 = getelementptr inbounds nuw i8, ptr %.085, i64 56
  %60 = load ptr, ptr %59, align 8, !tbaa !88
  %61 = getelementptr inbounds nuw i8, ptr %60, i64 24
  %62 = load ptr, ptr %61, align 8, !tbaa !96
  %.not65 = icmp eq ptr %62, null
  br i1 %.not65, label %63, label %.loopexit80

63:                                               ; preds = %58
  %64 = getelementptr inbounds nuw i8, ptr %60, i64 8
  %65 = load i64, ptr %64, align 8, !tbaa !97
  %66 = load i64, ptr %60, align 8, !tbaa !90
  %67 = add i64 %65, 1
  %68 = sub i64 %67, %66
  %69 = load ptr, ptr %57, align 8, !tbaa !34
  %70 = zext i32 %.25884 to i64
  %71 = getelementptr inbounds nuw i64, ptr %69, i64 %70
  %72 = load i64, ptr %71, align 8, !tbaa !11
  %.not66 = icmp eq i64 %68, %72
  br i1 %.not66, label %73, label %.loopexit80

73:                                               ; preds = %63
  %74 = getelementptr inbounds nuw i8, ptr %60, i64 16
  %75 = load ptr, ptr %74, align 8, !tbaa !92
  %76 = add i32 %.25884, 1
  %.not64 = icmp eq ptr %75, null
  br i1 %.not64, label %.loopexit, label %58, !llvm.loop !98

.loopexit80:                                      ; preds = %58, %63
  %.not6787 = icmp eq ptr %49, null
  br i1 %.not6787, label %.loopexit, label %.lr.ph

.lr.ph:                                           ; preds = %47, %.loopexit80
  %77 = getelementptr inbounds nuw i8, ptr %0, i64 56
  br label %78

78:                                               ; preds = %.lr.ph, %91
  %.189 = phi ptr [ %49, %.lr.ph ], [ %.1, %91 ]
  %.388 = phi i32 [ 0, %.lr.ph ], [ %93, %91 ]
  %79 = getelementptr inbounds nuw i8, ptr %.189, i64 56
  %80 = load ptr, ptr %79, align 8, !tbaa !88
  %81 = getelementptr inbounds nuw i8, ptr %80, i64 24
  %82 = load ptr, ptr %81, align 8, !tbaa !96
  %.not68 = icmp eq ptr %82, null
  br i1 %.not68, label %83, label %.loopexit

83:                                               ; preds = %78
  %84 = load i32, ptr %77, align 8, !tbaa !21
  %85 = add i32 %84, -1
  %86 = icmp ult i32 %.388, %85
  br i1 %86, label %87, label %91

87:                                               ; preds = %83
  %88 = getelementptr inbounds nuw i8, ptr %80, i64 8
  %89 = load i64, ptr %88, align 8, !tbaa !97
  %90 = load i64, ptr %80, align 8, !tbaa !90
  %.not69 = icmp eq i64 %89, %90
  br i1 %.not69, label %91, label %.loopexit

91:                                               ; preds = %87, %83
  %92 = getelementptr inbounds nuw i8, ptr %80, i64 16
  %93 = add i32 %.388, 1
  %.1 = load ptr, ptr %92, align 8, !tbaa !99
  %.not67 = icmp eq ptr %.1, null
  br i1 %.not67, label %.loopexit, label %78, !llvm.loop !100

.loopexit:                                        ; preds = %73, %87, %78, %91, %31, %46, %36, %43, %13, %.loopexit80, %54, %1
  %.054 = phi i32 [ 0, %1 ], [ 1, %54 ], [ 1, %.loopexit80 ], [ 1, %13 ], [ 1, %46 ], [ 0, %36 ], [ 0, %43 ], [ 1, %31 ], [ 0, %87 ], [ 0, %78 ], [ 1, %91 ], [ 1, %73 ]
  ret i32 %.054
}